target datalayout = "e-m:e-p270:32:32-p271:32:32-p272:64:64-i64:64-i128:128-f80:128-n8:16:32:64-S128"
target triple = "x86_64-pc-linux-gnu"

%struct._signal_param_t = type { ptr, i32, i32 }
%struct._GValue = type { i64, [2 x %union.anon] }
%union.anon = type { i64 }

; Function Attrs: nounwind uwtable
define internal i32 @_signal_raise(ptr noundef %0) #0 {
  %2 = alloca ptr, align 8
  %3 = alloca ptr, align 8
  %4 = alloca i32, align 4
  store ptr %0, ptr %2, align 8, !tbaa !37
  call void @llvm.lifetime.start.p0(i64 8, ptr %3) #11
  %5 = load ptr, ptr %2, align 8, !tbaa !37
  store ptr %5, ptr %3, align 8, !tbaa !43
  %6 = load ptr, ptr %3, align 8, !tbaa !43
  %7 = getelementptr inbounds nuw %struct._signal_param_t, ptr %6, i32 0, i32 0
  %8 = load ptr, ptr %7, align 8, !tbaa !45
  %9 = load ptr, ptr %3, align 8, !tbaa !43
  %10 = getelementptr inbounds nuw %struct._signal_param_t, ptr %9, i32 0, i32 1
  %11 = load i32, ptr %10, align 8, !tbaa !48
  call void @g_signal_emitv(ptr noundef %8, i32 noundef %11, i32 noundef 0, ptr noundef null)
  call void @llvm.lifetime.start.p0(i64 4, ptr %4) #11
  store i32 0, ptr %4, align 4, !tbaa !26
  br label %12

12:                                               ; preds = %26, %1
  %13 = load i32, ptr %4, align 4, !tbaa !26
  %14 = load ptr, ptr %3, align 8, !tbaa !43
  %15 = getelementptr inbounds nuw %struct._signal_param_t, ptr %14, i32 0, i32 2
  %16 = load i32, ptr %15, align 4, !tbaa !49
  %17 = icmp ule i32 %13, %16
  br i1 %17, label %19, label %18

18:                                               ; preds = %12
  call void @llvm.lifetime.end.p0(i64 4, ptr %4) #11
  br label %29

19:                                               ; preds = %12
  %20 = load ptr, ptr %3, align 8, !tbaa !43
  %21 = getelementptr inbounds nuw %struct._signal_param_t, ptr %20, i32 0, i32 0
  %22 = load ptr, ptr %21, align 8, !tbaa !45
  %23 = load i32, ptr %4, align 4, !tbaa !26
  %24 = sext i32 %23 to i64
  %25 = getelementptr inbounds %struct._GValue, ptr %22, i64 %24
  call void @g_value_unset(ptr noundef %25)
  br label %26

26:                                               ; preds = %19
  %27 = load i32, ptr %4, align 4, !tbaa !26
  %28 = add nsw i32 %27, 1
  store i32 %28, ptr %4, align 4, !tbaa !26
  br label %12

29:                                               ; preds = %18
  %30 = load ptr, ptr %3, align 8, !tbaa !43
  %31 = getelementptr inbounds nuw %struct._signal_param_t, ptr %30, i32 0, i32 0
  %32 = load ptr, ptr %31, align 8, !tbaa !45
  call void @free(ptr noundef %32) #11
  %33 = load ptr, ptr %3, align 8, !tbaa !43
  call void @free(ptr noundef %33) #11
  call void @llvm.lifetime.end.p0(i64 8, ptr %3) #11
  ret i32 0
}