; Function Attrs: nounwind uwtable
define internal noundef i32 @_signal_raise(ptr noundef captures(none) %0) #0 {
  %2 = load ptr, ptr %0, align 8, !tbaa !34
  %3 = getelementptr inbounds nuw i8, ptr %0, i64 8
  %4 = load i32, ptr %3, align 8, !tbaa !37
  tail call void @g_signal_emitv(ptr noundef %2, i32 noundef %4, i32 noundef 0, ptr noundef null) #11
  %5 = getelementptr inbounds nuw i8, ptr %0, i64 12
  br label %8

6:                                                ; preds = %8
  %7 = load ptr, ptr %0, align 8, !tbaa !34
  tail call void @free(ptr noundef %7) #11
  tail call void @free(ptr noundef nonnull %0) #11
  ret i32 0

8:                                                ; preds = %1, %8
  %indvars.iv = phi i64 [ 0, %1 ], [ %indvars.iv.next, %8 ]
  %9 = load ptr, ptr %0, align 8, !tbaa !34
  %10 = getelementptr inbounds nuw %struct._GValue, ptr %9, i64 %indvars.iv
  tail call void @g_value_unset(ptr noundef %10) #11
  %indvars.iv.next = add nuw nsw i64 %indvars.iv, 1
  %11 = load i32, ptr %5, align 4, !tbaa !38
  %12 = zext i32 %11 to i64
  %.not.not = icmp samesign ult i64 %indvars.iv, %12
  br i1 %.not.not, label %8, label %6
}